; Function Attrs: nounwind uwtable
define internal fastcc void @pushString(ptr noundef captures(none) %0, ptr noundef readonly captures(none) %1) unnamed_addr #12 {
  %3 = tail call noalias ptr @strdup(ptr noundef readonly %1) #23
  %4 = icmp eq ptr %3, null
  br i1 %4, label %5, label %gv_strdup.exit

5:                                                ; preds = %2
  %6 = load ptr, ptr @stderr, align 8, !tbaa !11
  %7 = tail call i64 @strlen(ptr noundef nonnull readonly dereferenceable(1) %1) #24
  %8 = add i64 %7, 1
  %9 = tail call i32 (ptr, ptr, ...) @fprintf(ptr noundef %6, ptr noundef nonnull @.str.33, i64 noundef %8) #25
  tail call fastcc void @graphviz_exit(i32 noundef 1) #27
  unreachable

gv_strdup.exit:                                   ; preds = %2
  %10 = getelementptr inbounds nuw i8, ptr %0, i64 16
  %11 = load i64, ptr %10, align 8, !tbaa !53
  %12 = getelementptr inbounds nuw i8, ptr %0, i64 24
  %13 = load i64, ptr %12, align 8, !tbaa !56
  %14 = icmp eq i64 %11, %13
  br i1 %14, label %15, label %._crit_edge.i.i.i

._crit_edge.i.i.i:                                ; preds = %gv_strdup.exit
  %.phi.trans.insert.i.i.i = getelementptr inbounds nuw i8, ptr %0, i64 8
  %.pre.i.i.i = load i64, ptr %.phi.trans.insert.i.i.i, align 8, !tbaa !55
  %.pre46.i.i.i = load ptr, ptr %0, align 8, !tbaa !54
  br label %strs_push_back.exit

15:                                               ; preds = %gv_strdup.exit
  %16 = icmp eq i64 %11, 0
  %17 = shl i64 %11, 1
  %spec.select.i.i.i = select i1 %16, i64 1, i64 %17
  %mul.ov.i.i.i = icmp ugt i64 %spec.select.i.i.i, 2305843009213693951
  br i1 %mul.ov.i.i.i, label %41, label %18

18:                                               ; preds = %15
  %19 = load ptr, ptr %0, align 8, !tbaa !54
  %20 = shl nuw i64 %spec.select.i.i.i, 3
  %21 = tail call ptr @realloc(ptr noundef %19, i64 noundef %20) #29
  %22 = icmp eq ptr %21, null
  br i1 %22, label %41, label %23

23:                                               ; preds = %18
  %24 = load i64, ptr %12, align 8, !tbaa !56
  %25 = getelementptr inbounds nuw ptr, ptr %21, i64 %24
  %26 = sub i64 %spec.select.i.i.i, %24
  %27 = shl i64 %26, 3
  tail call void @llvm.memset.p0.i64(ptr nonnull align 8 %25, i8 0, i64 %27, i1 false)
  %28 = getelementptr inbounds nuw i8, ptr %0, i64 8
  %29 = load i64, ptr %28, align 8, !tbaa !55
  %30 = load i64, ptr %10, align 8, !tbaa !53
  %31 = add i64 %30, %29
  %32 = icmp ugt i64 %31, %24
  br i1 %32, label %33, label %39

33:                                               ; preds = %23
  %34 = sub i64 %24, %29
  %35 = sub i64 %spec.select.i.i.i, %34
  %36 = getelementptr inbounds nuw ptr, ptr %21, i64 %35
  %37 = getelementptr inbounds nuw ptr, ptr %21, i64 %29
  %38 = shl i64 %34, 3
  tail call void @llvm.memmove.p0.p0.i64(ptr nonnull align 8 %36, ptr nonnull align 8 %37, i64 %38, i1 false)
  store i64 %35, ptr %28, align 8, !tbaa !55
  br label %39

39:                                               ; preds = %33, %23
  %40 = phi i64 [ %29, %23 ], [ %35, %33 ]
  store ptr %21, ptr %0, align 8, !tbaa !54
  store i64 %spec.select.i.i.i, ptr %12, align 8, !tbaa !56
  br label %strs_push_back.exit

41:                                               ; preds = %18, %15
  %.2.i.ph.i.i = phi i32 [ 34, %15 ], [ 12, %18 ]
  %42 = load ptr, ptr @stderr, align 8, !tbaa !11
  %43 = tail call ptr @strerror(i32 noundef %.2.i.ph.i.i) #23
  %44 = tail call i32 (ptr, ptr, ...) @fprintf(ptr noundef %42, ptr noundef nonnull @.str.32, ptr noundef %43) #25
  tail call fastcc void @graphviz_exit(i32 noundef 1) #27
  unreachable

strs_push_back.exit:                              ; preds = %._crit_edge.i.i.i, %39
  %45 = phi ptr [ %.pre46.i.i.i, %._crit_edge.i.i.i ], [ %21, %39 ]
  %46 = phi i64 [ %13, %._crit_edge.i.i.i ], [ %spec.select.i.i.i, %39 ]
  %47 = phi i64 [ %11, %._crit_edge.i.i.i ], [ %30, %39 ]
  %48 = phi i64 [ %.pre.i.i.i, %._crit_edge.i.i.i ], [ %40, %39 ]
  %49 = add i64 %48, %47
  %50 = urem i64 %49, %46
  %51 = getelementptr inbounds nuw ptr, ptr %45, i64 %50
  store ptr %3, ptr %51, align 8, !tbaa !4
  %52 = add i64 %47, 1
  store i64 %52, ptr %10, align 8, !tbaa !53
  ret void
}